target datalayout = "e-m:e-p270:32:32-p271:32:32-p272:64:64-i64:64-i128:128-f80:128-n8:16:32:64-S128"
target triple = "x86_64-pc-linux-gnu"

%"class.gmx::OutputAdapterContainer" = type { %"struct.gmx::EnumerationArray", i64 }
%"struct.gmx::EnumerationArray" = type { [513 x %"class.std::unique_ptr"] }
%"class.std::unique_ptr" = type { %"struct.std::__uniq_ptr_data" }
%"struct.std::__uniq_ptr_data" = type { %"class.std::__uniq_ptr_impl" }
%"class.std::__uniq_ptr_impl" = type { %"class.std::tuple" }
%"class.std::tuple" = type { %"struct.std::_Tuple_impl" }
%"struct.std::_Tuple_impl" = type { %"struct.std::_Head_base.1" }
%"struct.std::_Head_base.1" = type { ptr }
%"struct.__gnu_cxx::__ops::_Iter_pred" = type { i8 }

; Function Attrs: mustprogress nounwind uwtable
define linkonce_odr noundef nonnull align 8 dereferenceable(8) ptr @_ZNSt10_Head_baseILm0EPN3gmx14IOutputAdapterELb0EE7_M_headERKS3_(ptr noundef nonnull align 8 dereferenceable(8) %0) #2 comdat align 2 {
  %2 = alloca ptr, align 8
  store ptr %0, ptr %2, align 8, !tbaa !50
  %3 = load ptr, ptr %2, align 8, !tbaa !50
  %4 = getelementptr inbounds nuw %"struct.std::_Head_base.1", ptr %3, i32 0, i32 0
  ret ptr %4
}

; Function Attrs: mustprogress nounwind uwtable
define linkonce_odr noundef nonnull align 8 dereferenceable(8) ptr @_ZNSt11_Tuple_implILm0EJPN3gmx14IOutputAdapterESt14default_deleteIS1_EEE7_M_headERKS5_(ptr noundef nonnull align 8 dereferenceable(8) %0) #2 comdat align 2 {
  %2 = alloca ptr, align 8
  store ptr %0, ptr %2, align 8, !tbaa !48
  %3 = load ptr, ptr %2, align 8, !tbaa !48
  %4 = call noundef nonnull align 8 dereferenceable(8) ptr @_ZNSt10_Head_baseILm0EPN3gmx14IOutputAdapterELb0EE7_M_headERKS3_(ptr noundef nonnull align 8 dereferenceable(8) %3) #16
  ret ptr %4
}

; Function Attrs: mustprogress nounwind uwtable
define linkonce_odr noundef nonnull align 8 dereferenceable(8) ptr @_ZSt12__get_helperILm0EPN3gmx14IOutputAdapterEJSt14default_deleteIS1_EEERKT0_RKSt11_Tuple_implIXT_EJS5_DpT1_EE(ptr noundef nonnull align 8 dereferenceable(8) %0) #2 comdat {
  %2 = alloca ptr, align 8
  store ptr %0, ptr %2, align 8, !tbaa !48
  %3 = load ptr, ptr %2, align 8, !tbaa !48
  %4 = call noundef nonnull align 8 dereferenceable(8) ptr @_ZNSt11_Tuple_implILm0EJPN3gmx14IOutputAdapterESt14default_deleteIS1_EEE7_M_headERKS5_(ptr noundef nonnull align 8 dereferenceable(8) %3) #16
  ret ptr %4
}

; Function Attrs: mustprogress nounwind uwtable
define linkonce_odr noundef nonnull align 8 dereferenceable(8) ptr @_ZSt3getILm0EJPN3gmx14IOutputAdapterESt14default_deleteIS1_EEERKNSt13tuple_elementIXT_ESt5tupleIJDpT0_EEE4typeERKS9_(ptr noundef nonnull align 8 dereferenceable(8) %0) #2 comdat {
  %2 = alloca ptr, align 8
  store ptr %0, ptr %2, align 8, !tbaa !46
  %3 = load ptr, ptr %2, align 8, !tbaa !46
  %4 = call noundef nonnull align 8 dereferenceable(8) ptr @_ZSt12__get_helperILm0EPN3gmx14IOutputAdapterEJSt14default_deleteIS1_EEERKT0_RKSt11_Tuple_implIXT_EJS5_DpT1_EE(ptr noundef nonnull align 8 dereferenceable(8) %3) #16
  ret ptr %4
}

; Function Attrs: mustprogress nounwind uwtable
define linkonce_odr noundef ptr @_ZNKSt15__uniq_ptr_implIN3gmx14IOutputAdapterESt14default_deleteIS1_EE6_M_ptrEv(ptr noundef nonnull align 8 dereferenceable(8) %0) #2 comdat align 2 {
  %2 = alloca ptr, align 8
  store ptr %0, ptr %2, align 8, !tbaa !42
  %3 = load ptr, ptr %2, align 8
  %4 = getelementptr inbounds nuw %"class.std::__uniq_ptr_impl", ptr %3, i32 0, i32 0
  %5 = call noundef nonnull align 8 dereferenceable(8) ptr @_ZSt3getILm0EJPN3gmx14IOutputAdapterESt14default_deleteIS1_EEERKNSt13tuple_elementIXT_ESt5tupleIJDpT0_EEE4typeERKS9_(ptr noundef nonnull align 8 dereferenceable(8) %4) #16
  %6 = load ptr, ptr %5, align 8, !tbaa !44
  ret ptr %6
}

; Function Attrs: mustprogress nounwind uwtable
define linkonce_odr noundef ptr @_ZNKSt10unique_ptrIN3gmx14IOutputAdapterESt14default_deleteIS1_EE3getEv(ptr noundef nonnull align 8 dereferenceable(8) %0) #2 comdat align 2 {
  %2 = alloca ptr, align 8
  store ptr %0, ptr %2, align 8, !tbaa !9
  %3 = load ptr, ptr %2, align 8
  %4 = getelementptr inbounds nuw %"class.std::unique_ptr", ptr %3, i32 0, i32 0
  %5 = call noundef ptr @_ZNKSt15__uniq_ptr_implIN3gmx14IOutputAdapterESt14default_deleteIS1_EE6_M_ptrEv(ptr noundef nonnull align 8 dereferenceable(8) %4) #16
  ret ptr %5
}

; Function Attrs: mustprogress nounwind uwtable
define linkonce_odr noundef zeroext i1 @_ZNKSt10unique_ptrIN3gmx14IOutputAdapterESt14default_deleteIS1_EEcvbEv(ptr noundef nonnull align 8 dereferenceable(8) %0) #2 comdat align 2 {
  %2 = alloca ptr, align 8
  store ptr %0, ptr %2, align 8, !tbaa !9
  %3 = load ptr, ptr %2, align 8
  %4 = call noundef ptr @_ZNKSt10unique_ptrIN3gmx14IOutputAdapterESt14default_deleteIS1_EE3getEv(ptr noundef nonnull align 8 dereferenceable(8) %3) #16
  %5 = icmp eq ptr %4, null
  %6 = select i1 %5, i1 false, i1 true
  ret i1 %6
}

; Function Attrs: inlinehint mustprogress nounwind uwtable
define linkonce_odr noundef zeroext i1 @_ZStneIN3gmx14IOutputAdapterESt14default_deleteIS1_EEbRKSt10unique_ptrIT_T0_EDn(ptr noundef nonnull align 8 dereferenceable(8) %0, ptr %1) #1 comdat {
  %3 = alloca ptr, align 8
  %4 = alloca ptr, align 8
  store ptr %0, ptr %3, align 8, !tbaa !9
  store ptr %1, ptr %4, align 8, !tbaa !19
  %5 = load ptr, ptr %3, align 8, !tbaa !9
  %6 = call noundef zeroext i1 @_ZNKSt10unique_ptrIN3gmx14IOutputAdapterESt14default_deleteIS1_EEcvbEv(ptr noundef nonnull align 8 dereferenceable(8) %5) #16
  ret i1 %6
}

; Function Attrs: inlinehint mustprogress nounwind uwtable
define internal noundef zeroext i1 @"_ZZNK3gmx22OutputAdapterContainer7isEmptyEvENK3$_0clISt10unique_ptrINS_14IOutputAdapterESt14default_deleteIS4_EEEEDaRKT_"(ptr noundef nonnull align 1 dereferenceable(1) %0, ptr noundef nonnull align 8 dereferenceable(8) %1) #1 align 2 {
  %3 = alloca ptr, align 8
  %4 = alloca ptr, align 8
  store ptr %0, ptr %3, align 8, !tbaa !166
  store ptr %1, ptr %4, align 8, !tbaa !9
  %5 = load ptr, ptr %4, align 8, !tbaa !9
  %6 = call noundef zeroext i1 @_ZStneIN3gmx14IOutputAdapterESt14default_deleteIS1_EEbRKSt10unique_ptrIT_T0_EDn(ptr noundef nonnull align 8 dereferenceable(8) %5, ptr null) #16
  ret i1 %6
}

; Function Attrs: mustprogress uwtable
define internal noundef zeroext i1 @"_ZN9__gnu_cxx5__ops10_Iter_predIZNK3gmx22OutputAdapterContainer7isEmptyEvE3$_0EclIPKSt10unique_ptrINS2_14IOutputAdapterESt14default_deleteIS8_EEEEbT_"(ptr noundef nonnull align 1 dereferenceable(1) %0, ptr noundef %1) #0 align 2 {
  %3 = alloca ptr, align 8
  %4 = alloca ptr, align 8
  store ptr %0, ptr %3, align 8, !tbaa !164
  store ptr %1, ptr %4, align 8, !tbaa !9
  %5 = load ptr, ptr %3, align 8
  %6 = load ptr, ptr %4, align 8, !tbaa !9
  %7 = call noundef zeroext i1 @"_ZZNK3gmx22OutputAdapterContainer7isEmptyEvENK3$_0clISt10unique_ptrINS_14IOutputAdapterESt14default_deleteIS4_EEEEDaRKT_"(ptr noundef nonnull align 1 dereferenceable(1) %5, ptr noundef nonnull align 8 dereferenceable(8) %6)
  ret i1 %7
}

; Function Attrs: mustprogress uwtable
define internal noundef ptr @"_ZSt9__find_ifIPKSt10unique_ptrIN3gmx14IOutputAdapterESt14default_deleteIS2_EEN9__gnu_cxx5__ops10_Iter_predIZNKS1_22OutputAdapterContainer7isEmptyEvE3$_0EEET_SE_SE_T0_St26random_access_iterator_tag"(ptr noundef %0, ptr noundef %1) #0 {
  %3 = alloca ptr, align 8
  %4 = alloca %"struct.__gnu_cxx::__ops::_Iter_pred", align 1
  %5 = alloca ptr, align 8
  %6 = alloca ptr, align 8
  %7 = alloca i64, align 8
  %8 = alloca i32, align 4
  store ptr %0, ptr %5, align 8, !tbaa !9
  store ptr %1, ptr %6, align 8, !tbaa !9
  call void @llvm.lifetime.start.p0(i64 8, ptr %7) #16
  %9 = load ptr, ptr %6, align 8, !tbaa !9
  %10 = load ptr, ptr %5, align 8, !tbaa !9
  %11 = ptrtoint ptr %9 to i64
  %12 = ptrtoint ptr %10 to i64
  %13 = sub i64 %11, %12
  %14 = sdiv exact i64 %13, 8
  %15 = ashr i64 %14, 2
  store i64 %15, ptr %7, align 8, !tbaa !110
  br label %16

16:                                               ; preds = %48, %2
  %17 = load i64, ptr %7, align 8, !tbaa !110
  %18 = icmp sgt i64 %17, 0
  br i1 %18, label %19, label %51

19:                                               ; preds = %16
  %20 = load ptr, ptr %5, align 8, !tbaa !9
  %21 = call noundef zeroext i1 @"_ZN9__gnu_cxx5__ops10_Iter_predIZNK3gmx22OutputAdapterContainer7isEmptyEvE3$_0EclIPKSt10unique_ptrINS2_14IOutputAdapterESt14default_deleteIS8_EEEEbT_"(ptr noundef nonnull align 1 dereferenceable(1) %4, ptr noundef %20)
  br i1 %21, label %22, label %24

22:                                               ; preds = %19
  %23 = load ptr, ptr %5, align 8, !tbaa !9
  store ptr %23, ptr %3, align 8
  store i32 1, ptr %8, align 4
  br label %85

24:                                               ; preds = %19
  %25 = load ptr, ptr %5, align 8, !tbaa !9
  %26 = getelementptr inbounds nuw %"class.std::unique_ptr", ptr %25, i32 1
  store ptr %26, ptr %5, align 8, !tbaa !9
  %27 = load ptr, ptr %5, align 8, !tbaa !9
  %28 = call noundef zeroext i1 @"_ZN9__gnu_cxx5__ops10_Iter_predIZNK3gmx22OutputAdapterContainer7isEmptyEvE3$_0EclIPKSt10unique_ptrINS2_14IOutputAdapterESt14default_deleteIS8_EEEEbT_"(ptr noundef nonnull align 1 dereferenceable(1) %4, ptr noundef %27)
  br i1 %28, label %29, label %31

29:                                               ; preds = %24
  %30 = load ptr, ptr %5, align 8, !tbaa !9
  store ptr %30, ptr %3, align 8
  store i32 1, ptr %8, align 4
  br label %85

31:                                               ; preds = %24
  %32 = load ptr, ptr %5, align 8, !tbaa !9
  %33 = getelementptr inbounds nuw %"class.std::unique_ptr", ptr %32, i32 1
  store ptr %33, ptr %5, align 8, !tbaa !9
  %34 = load ptr, ptr %5, align 8, !tbaa !9
  %35 = call noundef zeroext i1 @"_ZN9__gnu_cxx5__ops10_Iter_predIZNK3gmx22OutputAdapterContainer7isEmptyEvE3$_0EclIPKSt10unique_ptrINS2_14IOutputAdapterESt14default_deleteIS8_EEEEbT_"(ptr noundef nonnull align 1 dereferenceable(1) %4, ptr noundef %34)
  br i1 %35, label %36, label %38

36:                                               ; preds = %31
  %37 = load ptr, ptr %5, align 8, !tbaa !9
  store ptr %37, ptr %3, align 8
  store i32 1, ptr %8, align 4
  br label %85

38:                                               ; preds = %31
  %39 = load ptr, ptr %5, align 8, !tbaa !9
  %40 = getelementptr inbounds nuw %"class.std::unique_ptr", ptr %39, i32 1
  store ptr %40, ptr %5, align 8, !tbaa !9
  %41 = load ptr, ptr %5, align 8, !tbaa !9
  %42 = call noundef zeroext i1 @"_ZN9__gnu_cxx5__ops10_Iter_predIZNK3gmx22OutputAdapterContainer7isEmptyEvE3$_0EclIPKSt10unique_ptrINS2_14IOutputAdapterESt14default_deleteIS8_EEEEbT_"(ptr noundef nonnull align 1 dereferenceable(1) %4, ptr noundef %41)
  br i1 %42, label %43, label %45

43:                                               ; preds = %38
  %44 = load ptr, ptr %5, align 8, !tbaa !9
  store ptr %44, ptr %3, align 8
  store i32 1, ptr %8, align 4
  br label %85

45:                                               ; preds = %38
  %46 = load ptr, ptr %5, align 8, !tbaa !9
  %47 = getelementptr inbounds nuw %"class.std::unique_ptr", ptr %46, i32 1
  store ptr %47, ptr %5, align 8, !tbaa !9
  br label %48

48:                                               ; preds = %45
  %49 = load i64, ptr %7, align 8, !tbaa !110
  %50 = add nsw i64 %49, -1
  store i64 %50, ptr %7, align 8, !tbaa !110
  br label %16, !llvm.loop !161

51:                                               ; preds = %16
  %52 = load ptr, ptr %6, align 8, !tbaa !9
  %53 = load ptr, ptr %5, align 8, !tbaa !9
  %54 = ptrtoint ptr %52 to i64
  %55 = ptrtoint ptr %53 to i64
  %56 = sub i64 %54, %55
  %57 = sdiv exact i64 %56, 8
  switch i64 %57, label %83 [
    i64 3, label %58
    i64 2, label %66
    i64 1, label %74
    i64 0, label %82
  ]

58:                                               ; preds = %51
  %59 = load ptr, ptr %5, align 8, !tbaa !9
  %60 = call noundef zeroext i1 @"_ZN9__gnu_cxx5__ops10_Iter_predIZNK3gmx22OutputAdapterContainer7isEmptyEvE3$_0EclIPKSt10unique_ptrINS2_14IOutputAdapterESt14default_deleteIS8_EEEEbT_"(ptr noundef nonnull align 1 dereferenceable(1) %4, ptr noundef %59)
  br i1 %60, label %61, label %63

61:                                               ; preds = %58
  %62 = load ptr, ptr %5, align 8, !tbaa !9
  store ptr %62, ptr %3, align 8
  store i32 1, ptr %8, align 4
  br label %85

63:                                               ; preds = %58
  %64 = load ptr, ptr %5, align 8, !tbaa !9
  %65 = getelementptr inbounds nuw %"class.std::unique_ptr", ptr %64, i32 1
  store ptr %65, ptr %5, align 8, !tbaa !9
  br label %66

66:                                               ; preds = %51, %63
  %67 = load ptr, ptr %5, align 8, !tbaa !9
  %68 = call noundef zeroext i1 @"_ZN9__gnu_cxx5__ops10_Iter_predIZNK3gmx22OutputAdapterContainer7isEmptyEvE3$_0EclIPKSt10unique_ptrINS2_14IOutputAdapterESt14default_deleteIS8_EEEEbT_"(ptr noundef nonnull align 1 dereferenceable(1) %4, ptr noundef %67)
  br i1 %68, label %69, label %71

69:                                               ; preds = %66
  %70 = load ptr, ptr %5, align 8, !tbaa !9
  store ptr %70, ptr %3, align 8
  store i32 1, ptr %8, align 4
  br label %85

71:                                               ; preds = %66
  %72 = load ptr, ptr %5, align 8, !tbaa !9
  %73 = getelementptr inbounds nuw %"class.std::unique_ptr", ptr %72, i32 1
  store ptr %73, ptr %5, align 8, !tbaa !9
  br label %74

74:                                               ; preds = %51, %71
  %75 = load ptr, ptr %5, align 8, !tbaa !9
  %76 = call noundef zeroext i1 @"_ZN9__gnu_cxx5__ops10_Iter_predIZNK3gmx22OutputAdapterContainer7isEmptyEvE3$_0EclIPKSt10unique_ptrINS2_14IOutputAdapterESt14default_deleteIS8_EEEEbT_"(ptr noundef nonnull align 1 dereferenceable(1) %4, ptr noundef %75)
  br i1 %76, label %77, label %79

77:                                               ; preds = %74
  %78 = load ptr, ptr %5, align 8, !tbaa !9
  store ptr %78, ptr %3, align 8
  store i32 1, ptr %8, align 4
  br label %85

79:                                               ; preds = %74
  %80 = load ptr, ptr %5, align 8, !tbaa !9
  %81 = getelementptr inbounds nuw %"class.std::unique_ptr", ptr %80, i32 1
  store ptr %81, ptr %5, align 8, !tbaa !9
  br label %82

82:                                               ; preds = %51, %79
  br label %83

83:                                               ; preds = %51, %82
  %84 = load ptr, ptr %6, align 8, !tbaa !9
  store ptr %84, ptr %3, align 8
  store i32 1, ptr %8, align 4
  br label %85

85:                                               ; preds = %83, %77, %69, %61, %43, %36, %29, %22
  call void @llvm.lifetime.end.p0(i64 8, ptr %7) #16
  %86 = load ptr, ptr %3, align 8
  ret ptr %86
}

; Function Attrs: inlinehint mustprogress nounwind uwtable
define linkonce_odr void @_ZSt19__iterator_categoryIPKSt10unique_ptrIN3gmx14IOutputAdapterESt14default_deleteIS2_EEENSt15iterator_traitsIT_E17iterator_categoryERKS9_(ptr noundef nonnull align 8 dereferenceable(8) %0) #1 comdat {
  %2 = alloca ptr, align 8
  store ptr %0, ptr %2, align 8, !tbaa !162
  ret void
}

; Function Attrs: mustprogress nounwind uwtable
define internal void @"_ZN9__gnu_cxx5__ops10_Iter_predIZNK3gmx22OutputAdapterContainer7isEmptyEvE3$_0EC2ES4_"(ptr noundef nonnull align 1 dereferenceable(1) %0) unnamed_addr #2 align 2 {
  %2 = alloca ptr, align 8
  store ptr %0, ptr %2, align 8, !tbaa !164
  ret void
}

; Function Attrs: inlinehint mustprogress uwtable
define internal noundef ptr @"_ZSt9__find_ifIPKSt10unique_ptrIN3gmx14IOutputAdapterESt14default_deleteIS2_EEN9__gnu_cxx5__ops10_Iter_predIZNKS1_22OutputAdapterContainer7isEmptyEvE3$_0EEET_SE_SE_T0_"(ptr noundef %0, ptr noundef %1) #3 {
  %3 = alloca %"struct.__gnu_cxx::__ops::_Iter_pred", align 1
  %4 = alloca ptr, align 8
  %5 = alloca ptr, align 8
  %6 = alloca %"struct.__gnu_cxx::__ops::_Iter_pred", align 1
  store ptr %0, ptr %4, align 8, !tbaa !9
  store ptr %1, ptr %5, align 8, !tbaa !9
  %7 = load ptr, ptr %4, align 8, !tbaa !9
  %8 = load ptr, ptr %5, align 8, !tbaa !9
  call void @llvm.memcpy.p0.p0.i64(ptr align 1 %6, ptr align 1 %3, i64 1, i1 false), !tbaa.struct !160
  call void @_ZSt19__iterator_categoryIPKSt10unique_ptrIN3gmx14IOutputAdapterESt14default_deleteIS2_EEENSt15iterator_traitsIT_E17iterator_categoryERKS9_(ptr noundef nonnull align 8 dereferenceable(8) %4)
  %9 = call noundef ptr @"_ZSt9__find_ifIPKSt10unique_ptrIN3gmx14IOutputAdapterESt14default_deleteIS2_EEN9__gnu_cxx5__ops10_Iter_predIZNKS1_22OutputAdapterContainer7isEmptyEvE3$_0EEET_SE_SE_T0_St26random_access_iterator_tag"(ptr noundef %7, ptr noundef %8)
  ret ptr %9
}

; Function Attrs: inlinehint mustprogress uwtable
define internal void @"_ZN9__gnu_cxx5__ops11__pred_iterIZNK3gmx22OutputAdapterContainer7isEmptyEvE3$_0EENS0_10_Iter_predIT_EES6_"() #3 {
  %1 = alloca %"struct.__gnu_cxx::__ops::_Iter_pred", align 1
  call void @"_ZN9__gnu_cxx5__ops10_Iter_predIZNK3gmx22OutputAdapterContainer7isEmptyEvE3$_0EC2ES4_"(ptr noundef nonnull align 1 dereferenceable(1) %1)
  ret void
}

; Function Attrs: inlinehint mustprogress uwtable
define internal noundef ptr @"_ZSt7find_ifIPKSt10unique_ptrIN3gmx14IOutputAdapterESt14default_deleteIS2_EEZNKS1_22OutputAdapterContainer7isEmptyEvE3$_0ET_SA_SA_T0_"(ptr noundef %0, ptr noundef %1) #3 {
  %3 = alloca ptr, align 8
  %4 = alloca ptr, align 8
  store ptr %0, ptr %3, align 8, !tbaa !9
  store ptr %1, ptr %4, align 8, !tbaa !9
  %5 = load ptr, ptr %3, align 8, !tbaa !9
  %6 = load ptr, ptr %4, align 8, !tbaa !9
  call void @"_ZN9__gnu_cxx5__ops11__pred_iterIZNK3gmx22OutputAdapterContainer7isEmptyEvE3$_0EENS0_10_Iter_predIT_EES6_"()
  %7 = call noundef ptr @"_ZSt9__find_ifIPKSt10unique_ptrIN3gmx14IOutputAdapterESt14default_deleteIS2_EEN9__gnu_cxx5__ops10_Iter_predIZNKS1_22OutputAdapterContainer7isEmptyEvE3$_0EEET_SE_SE_T0_"(ptr noundef %5, ptr noundef %6)
  ret ptr %7
}

; Function Attrs: mustprogress nounwind uwtable
define linkonce_odr noundef i64 @_ZNK3gmx16EnumerationArrayINS_19CoordinateFileFlagsESt10unique_ptrINS_14IOutputAdapterESt14default_deleteIS3_EELS1_513EE4sizeEv(ptr noundef nonnull align 8 dereferenceable(4104) %0) #2 comdat align 2 {
  %2 = alloca ptr, align 8
  store ptr %0, ptr %2, align 8, !tbaa !21
  ret i64 513
}

; Function Attrs: inlinehint mustprogress uwtable
define internal noundef zeroext i1 @"_ZSt7none_ofIPKSt10unique_ptrIN3gmx14IOutputAdapterESt14default_deleteIS2_EEZNKS1_22OutputAdapterContainer7isEmptyEvE3$_0EbT_SA_T0_"(ptr noundef %0, ptr noundef %1) #3 {
  %3 = alloca ptr, align 8
  %4 = alloca ptr, align 8
  store ptr %0, ptr %3, align 8, !tbaa !9
  store ptr %1, ptr %4, align 8, !tbaa !9
  %5 = load ptr, ptr %4, align 8, !tbaa !9
  %6 = load ptr, ptr %3, align 8, !tbaa !9
  %7 = load ptr, ptr %4, align 8, !tbaa !9
  %8 = call noundef ptr @"_ZSt7find_ifIPKSt10unique_ptrIN3gmx14IOutputAdapterESt14default_deleteIS2_EEZNKS1_22OutputAdapterContainer7isEmptyEvE3$_0ET_SA_SA_T0_"(ptr noundef %6, ptr noundef %7)
  %9 = icmp eq ptr %5, %8
  ret i1 %9
}

; Function Attrs: mustprogress uwtable
define linkonce_odr noundef ptr @_ZNK3gmx16EnumerationArrayINS_19CoordinateFileFlagsESt10unique_ptrINS_14IOutputAdapterESt14default_deleteIS3_EELS1_513EE3endEv(ptr noundef nonnull align 8 dereferenceable(4104) %0) #0 comdat align 2 {
  %2 = alloca ptr, align 8
  store ptr %0, ptr %2, align 8, !tbaa !21
  %3 = load ptr, ptr %2, align 8
  %4 = getelementptr inbounds nuw %"struct.gmx::EnumerationArray", ptr %3, i32 0, i32 0
  %5 = call noundef i64 @_ZNK3gmx16EnumerationArrayINS_19CoordinateFileFlagsESt10unique_ptrINS_14IOutputAdapterESt14default_deleteIS3_EELS1_513EE4sizeEv(ptr noundef nonnull align 8 dereferenceable(4104) %3)
  %6 = getelementptr inbounds nuw [513 x %"class.std::unique_ptr"], ptr %4, i64 0, i64 %5
  ret ptr %6
}

; Function Attrs: mustprogress nounwind uwtable
define linkonce_odr noundef ptr @_ZNK3gmx16EnumerationArrayINS_19CoordinateFileFlagsESt10unique_ptrINS_14IOutputAdapterESt14default_deleteIS3_EELS1_513EE5beginEv(ptr noundef nonnull align 8 dereferenceable(4104) %0) #2 comdat align 2 {
  %2 = alloca ptr, align 8
  store ptr %0, ptr %2, align 8, !tbaa !21
  %3 = load ptr, ptr %2, align 8
  %4 = getelementptr inbounds nuw %"struct.gmx::EnumerationArray", ptr %3, i32 0, i32 0
  %5 = getelementptr inbounds [513 x %"class.std::unique_ptr"], ptr %4, i64 0, i64 0
  ret ptr %5
}

; Function Attrs: mustprogress uwtable
define noundef zeroext i1 @_ZNK3gmx22OutputAdapterContainer7isEmptyEv(ptr noundef nonnull align 8 dereferenceable(4112) %0) #0 align 2 {
  %2 = alloca ptr, align 8
  store ptr %0, ptr %2, align 8, !tbaa !4
  %3 = load ptr, ptr %2, align 8
  %4 = getelementptr inbounds nuw %"class.gmx::OutputAdapterContainer", ptr %3, i32 0, i32 0
  %5 = call noundef ptr @_ZNK3gmx16EnumerationArrayINS_19CoordinateFileFlagsESt10unique_ptrINS_14IOutputAdapterESt14default_deleteIS3_EELS1_513EE5beginEv(ptr noundef nonnull align 8 dereferenceable(4104) %4)
  %6 = getelementptr inbounds nuw %"class.gmx::OutputAdapterContainer", ptr %3, i32 0, i32 0
  %7 = call noundef ptr @_ZNK3gmx16EnumerationArrayINS_19CoordinateFileFlagsESt10unique_ptrINS_14IOutputAdapterESt14default_deleteIS3_EELS1_513EE3endEv(ptr noundef nonnull align 8 dereferenceable(4104) %6)
  %8 = call noundef zeroext i1 @"_ZSt7none_ofIPKSt10unique_ptrIN3gmx14IOutputAdapterESt14default_deleteIS2_EEZNKS1_22OutputAdapterContainer7isEmptyEvE3$_0EbT_SA_T0_"(ptr noundef %5, ptr noundef %7)
  ret i1 %8
}