; Function Attrs: mustprogress nofree norecurse nosync nounwind willreturn memory(argmem: read) uwtable
define noundef zeroext i1 @_ZNK3gmx22OutputAdapterContainer7isEmptyEv(ptr noundef nonnull readonly align 8 dereferenceable(4112) %0) local_unnamed_addr #14 align 2 {
  %2 = getelementptr inbounds nuw i8, ptr %0, i64 4104
  %scevgep.i.i.i.i = getelementptr inbounds nuw i8, ptr %0, i64 4096
  br label %.lr.ph.i.i.i.i

.lr.ph.i.i.i.i:                                   ; preds = %9, %1
  %.050.i.i.i.i = phi i64 [ %11, %9 ], [ 128, %1 ]
  %.02949.i.i.i.i = phi ptr [ %10, %9 ], [ %0, %1 ]
  %.029.val.i.i.i.i = load ptr, ptr %.02949.i.i.i.i, align 8, !tbaa !4
  %.not35.i.i.i.i = icmp eq ptr %.029.val.i.i.i.i, null
  br i1 %.not35.i.i.i.i, label %3, label %"_ZSt7none_ofIPKSt10unique_ptrIN3gmx14IOutputAdapterESt14default_deleteIS2_EEZNKS1_22OutputAdapterContainer7isEmptyEvE3$_0EbT_SA_T0_.exit"

3:                                                ; preds = %.lr.ph.i.i.i.i
  %4 = getelementptr inbounds nuw i8, ptr %.02949.i.i.i.i, i64 8
  %.val.i.i.i.i = load ptr, ptr %4, align 8, !tbaa !4
  %.not36.i.i.i.i = icmp eq ptr %.val.i.i.i.i, null
  br i1 %.not36.i.i.i.i, label %5, label %"_ZSt7none_ofIPKSt10unique_ptrIN3gmx14IOutputAdapterESt14default_deleteIS2_EEZNKS1_22OutputAdapterContainer7isEmptyEvE3$_0EbT_SA_T0_.exit.loopexit.split.loop.exit"

5:                                                ; preds = %3
  %6 = getelementptr inbounds nuw i8, ptr %.02949.i.i.i.i, i64 16
  %.val30.i.i.i.i = load ptr, ptr %6, align 8, !tbaa !4
  %.not37.i.i.i.i = icmp eq ptr %.val30.i.i.i.i, null
  br i1 %.not37.i.i.i.i, label %7, label %"_ZSt7none_ofIPKSt10unique_ptrIN3gmx14IOutputAdapterESt14default_deleteIS2_EEZNKS1_22OutputAdapterContainer7isEmptyEvE3$_0EbT_SA_T0_.exit.loopexit.split.loop.exit13"

7:                                                ; preds = %5
  %8 = getelementptr inbounds nuw i8, ptr %.02949.i.i.i.i, i64 24
  %.val31.i.i.i.i = load ptr, ptr %8, align 8, !tbaa !4
  %.not38.i.i.i.i = icmp eq ptr %.val31.i.i.i.i, null
  br i1 %.not38.i.i.i.i, label %9, label %"_ZSt7none_ofIPKSt10unique_ptrIN3gmx14IOutputAdapterESt14default_deleteIS2_EEZNKS1_22OutputAdapterContainer7isEmptyEvE3$_0EbT_SA_T0_.exit.loopexit.split.loop.exit15"

9:                                                ; preds = %7
  %10 = getelementptr inbounds nuw i8, ptr %.02949.i.i.i.i, i64 32
  %11 = add nsw i64 %.050.i.i.i.i, -1
  %12 = icmp ugt i64 %.050.i.i.i.i, 1
  br i1 %12, label %.lr.ph.i.i.i.i, label %._crit_edge.loopexit.i.i.i.i, !llvm.loop !51

._crit_edge.loopexit.i.i.i.i:                     ; preds = %9
  %.2.val.i.i.i.i = load ptr, ptr %scevgep.i.i.i.i, align 8, !tbaa !4
  %.not34.i.i.i.i = icmp eq ptr %.2.val.i.i.i.i, null
  %spec.select = select i1 %.not34.i.i.i.i, ptr %2, ptr %scevgep.i.i.i.i
  br label %"_ZSt7none_ofIPKSt10unique_ptrIN3gmx14IOutputAdapterESt14default_deleteIS2_EEZNKS1_22OutputAdapterContainer7isEmptyEvE3$_0EbT_SA_T0_.exit"

"_ZSt7none_ofIPKSt10unique_ptrIN3gmx14IOutputAdapterESt14default_deleteIS2_EEZNKS1_22OutputAdapterContainer7isEmptyEvE3$_0EbT_SA_T0_.exit.loopexit.split.loop.exit": ; preds = %3
  %13 = getelementptr inbounds nuw i8, ptr %.02949.i.i.i.i, i64 8
  br label %"_ZSt7none_ofIPKSt10unique_ptrIN3gmx14IOutputAdapterESt14default_deleteIS2_EEZNKS1_22OutputAdapterContainer7isEmptyEvE3$_0EbT_SA_T0_.exit"

"_ZSt7none_ofIPKSt10unique_ptrIN3gmx14IOutputAdapterESt14default_deleteIS2_EEZNKS1_22OutputAdapterContainer7isEmptyEvE3$_0EbT_SA_T0_.exit.loopexit.split.loop.exit13": ; preds = %5
  %14 = getelementptr inbounds nuw i8, ptr %.02949.i.i.i.i, i64 16
  br label %"_ZSt7none_ofIPKSt10unique_ptrIN3gmx14IOutputAdapterESt14default_deleteIS2_EEZNKS1_22OutputAdapterContainer7isEmptyEvE3$_0EbT_SA_T0_.exit"

"_ZSt7none_ofIPKSt10unique_ptrIN3gmx14IOutputAdapterESt14default_deleteIS2_EEZNKS1_22OutputAdapterContainer7isEmptyEvE3$_0EbT_SA_T0_.exit.loopexit.split.loop.exit15": ; preds = %7
  %15 = getelementptr inbounds nuw i8, ptr %.02949.i.i.i.i, i64 24
  br label %"_ZSt7none_ofIPKSt10unique_ptrIN3gmx14IOutputAdapterESt14default_deleteIS2_EEZNKS1_22OutputAdapterContainer7isEmptyEvE3$_0EbT_SA_T0_.exit"

"_ZSt7none_ofIPKSt10unique_ptrIN3gmx14IOutputAdapterESt14default_deleteIS2_EEZNKS1_22OutputAdapterContainer7isEmptyEvE3$_0EbT_SA_T0_.exit": ; preds = %.lr.ph.i.i.i.i, %"_ZSt7none_ofIPKSt10unique_ptrIN3gmx14IOutputAdapterESt14default_deleteIS2_EEZNKS1_22OutputAdapterContainer7isEmptyEvE3$_0EbT_SA_T0_.exit.loopexit.split.loop.exit", %"_ZSt7none_ofIPKSt10unique_ptrIN3gmx14IOutputAdapterESt14default_deleteIS2_EEZNKS1_22OutputAdapterContainer7isEmptyEvE3$_0EbT_SA_T0_.exit.loopexit.split.loop.exit13", %"_ZSt7none_ofIPKSt10unique_ptrIN3gmx14IOutputAdapterESt14default_deleteIS2_EEZNKS1_22OutputAdapterContainer7isEmptyEvE3$_0EbT_SA_T0_.exit.loopexit.split.loop.exit15", %._crit_edge.loopexit.i.i.i.i
  %.028.i.i.i.i = phi ptr [ %spec.select, %._crit_edge.loopexit.i.i.i.i ], [ %13, %"_ZSt7none_ofIPKSt10unique_ptrIN3gmx14IOutputAdapterESt14default_deleteIS2_EEZNKS1_22OutputAdapterContainer7isEmptyEvE3$_0EbT_SA_T0_.exit.loopexit.split.loop.exit" ], [ %14, %"_ZSt7none_ofIPKSt10unique_ptrIN3gmx14IOutputAdapterESt14default_deleteIS2_EEZNKS1_22OutputAdapterContainer7isEmptyEvE3$_0EbT_SA_T0_.exit.loopexit.split.loop.exit13" ], [ %15, %"_ZSt7none_ofIPKSt10unique_ptrIN3gmx14IOutputAdapterESt14default_deleteIS2_EEZNKS1_22OutputAdapterContainer7isEmptyEvE3$_0EbT_SA_T0_.exit.loopexit.split.loop.exit15" ], [ %.02949.i.i.i.i, %.lr.ph.i.i.i.i ]
  %16 = icmp eq ptr %2, %.028.i.i.i.i
  ret i1 %16
}